ccopy_reg
_reconstructor
p0
(csklearn.pipeline
Pipeline
p1
c__builtin__
object
p2
Ntp3
Rp4
(dp5
S'_sklearn_version'
p6
S'0.20.2'
p7
sS'steps'
p8
(lp9
(S'imputer'
p10
g0
(csklearn.compose._column_transformer
ColumnTransformer
p11
g2
Ntp12
Rp13
(dp14
S'sparse_threshold'
p15
F0.3
sS'n_jobs'
p16
NsS'transformers'
p17
(lp18
(S'financial'
p19
g0
(csklearn.impute
SimpleImputer
p20
g2
Ntp21
Rp22
(dp23
S'fill_value'
p24
Nsg6
g7
sS'verbose'
p25
I0
sS'missing_values'
p26
Fnan
sS'copy'
p27
I01
sS'strategy'
p28
S'constant'
p29
sbcnumpy.core.multiarray
_reconstruct
p30
(cnumpy
ndarray
p31
(I0
tp32
S'b'
p33
tp34
Rp35
(I1
(I4
tp36
cnumpy
dtype
p37
(S'i8'
p38
I0
I1
tp39
Rp40
(I3
S'<'
p41
NNNI-1
I-1
I0
tp42
bI00
S'\x00\x00\x00\x00\x00\x00\x00\x00\x01\x00\x00\x00\x00\x00\x00\x00\x02\x00\x00\x00\x00\x00\x00\x00\x03\x00\x00\x00\x00\x00\x00\x00'
p43
tp44
btp45
a(S'email'
p46
g0
(g20
g2
Ntp47
Rp48
(dp49
g24
Nsg6
g7
sg25
I0
sg26
Fnan
sg27
I01
sg28
S'median'
p50
sbg30
(g31
(I0
tp51
g33
tp52
Rp53
(I1
(I1
tp54
g40
I00
S'\x04\x00\x00\x00\x00\x00\x00\x00'
p55
tp56
btp57
asg6
g7
sS'transformer_weights'
p58
NsS'remainder'
p59
S'drop'
p60
sbtp61
a(S'scaler'
p62
g0
(csklearn.preprocessing.data
PowerTransformer
p63
g2
Ntp64
Rp65
(dp66
g6
g7
sg27
I01
sS'standardize'
p67
I01
sS'method'
p68
S'yeo-johnson'
p69
sbtp70
a(S'classifier'
p71
g0
(csklearn.naive_bayes
GaussianNB
p72
g2
Ntp73
Rp74
(dp75
S'priors'
p76
Nsg6
g7
sS'var_smoothing'
p77
F1e-09
sbtp78
asS'memory'
p79
Nsb.